target datalayout = "e-m:e-p270:32:32-p271:32:32-p272:64:64-i64:64-i128:128-f80:128-n8:16:32:64-S128"
target triple = "x86_64-pc-linux-gnu"

%struct.MinRegMan_t_ = type { i32, i32, i32, i32, i32, i32, i32, i32, i32, i32, i32, ptr, i32, i32, i32, i32, i32, i32, i32, i32, i32, ptr, ptr, ptr, ptr, ptr, ptr, ptr, ptr, ptr, i32 }
%struct.Vec_Int_t_ = type { i32, i32, ptr }
%struct.Flow_Data_t_ = type { i16, %union.anon, i32 }
%union.anon = type { ptr }
%struct.Abc_Obj_t_ = type { ptr, ptr, i32, i32, %struct.Vec_Int_t_, %struct.Vec_Int_t_, %union.anon.0, %union.anon.1 }
%union.anon.0 = type { ptr }
%union.anon.1 = type { ptr }

@pManMR = external global ptr, align 8

; Function Attrs: inlinehint nounwind uwtable
define internal i32 @Abc_ObjId(ptr noundef %0) #2 {
  %2 = alloca ptr, align 8
  store ptr %0, ptr %2, align 8, !tbaa !34
  %3 = load ptr, ptr %2, align 8, !tbaa !34
  %4 = getelementptr inbounds nuw %struct.Abc_Obj_t_, ptr %3, i32 0, i32 2
  %5 = load i32, ptr %4, align 8, !tbaa !59
  ret i32 %5
}

; Function Attrs: inlinehint nounwind uwtable
define internal void @Abc_FlowRetime_SetInitValue(ptr noundef %0, i32 noundef %1, i32 noundef %2) #2 {
  %4 = alloca ptr, align 8
  %5 = alloca i32, align 4
  %6 = alloca i32, align 4
  store ptr %0, ptr %4, align 8, !tbaa !34
  store i32 %1, ptr %5, align 4, !tbaa !19
  store i32 %2, ptr %6, align 4, !tbaa !19
  %7 = load ptr, ptr @pManMR, align 8, !tbaa !8
  %8 = getelementptr inbounds nuw %struct.MinRegMan_t_, ptr %7, i32 0, i32 23
  %9 = load ptr, ptr %8, align 8, !tbaa !36
  %10 = load ptr, ptr %4, align 8, !tbaa !34
  %11 = call i32 @Abc_ObjId(ptr noundef %10)
  %12 = zext i32 %11 to i64
  %13 = getelementptr inbounds nuw %struct.Flow_Data_t_, ptr %9, i64 %12
  %14 = load i16, ptr %13, align 8
  %15 = zext i16 %14 to i32
  %16 = and i32 %15, -97
  %17 = trunc i32 %16 to i16
  store i16 %17, ptr %13, align 8
  %18 = load i32, ptr %6, align 4, !tbaa !19
  %19 = icmp ne i32 %18, 0
  br i1 %19, label %48, label %20

20:                                               ; preds = %3
  %21 = load i32, ptr %5, align 4, !tbaa !19
  %22 = icmp ne i32 %21, 0
  br i1 %22, label %23, label %35

23:                                               ; preds = %20
  %24 = load ptr, ptr @pManMR, align 8, !tbaa !8
  %25 = getelementptr inbounds nuw %struct.MinRegMan_t_, ptr %24, i32 0, i32 23
  %26 = load ptr, ptr %25, align 8, !tbaa !36
  %27 = load ptr, ptr %4, align 8, !tbaa !34
  %28 = call i32 @Abc_ObjId(ptr noundef %27)
  %29 = zext i32 %28 to i64
  %30 = getelementptr inbounds nuw %struct.Flow_Data_t_, ptr %26, i64 %29
  %31 = load i16, ptr %30, align 8
  %32 = zext i16 %31 to i32
  %33 = or i32 %32, 64
  %34 = trunc i32 %33 to i16
  store i16 %34, ptr %30, align 8
  br label %47

35:                                               ; preds = %20
  %36 = load ptr, ptr @pManMR, align 8, !tbaa !8
  %37 = getelementptr inbounds nuw %struct.MinRegMan_t_, ptr %36, i32 0, i32 23
  %38 = load ptr, ptr %37, align 8, !tbaa !36
  %39 = load ptr, ptr %4, align 8, !tbaa !34
  %40 = call i32 @Abc_ObjId(ptr noundef %39)
  %41 = zext i32 %40 to i64
  %42 = getelementptr inbounds nuw %struct.Flow_Data_t_, ptr %38, i64 %41
  %43 = load i16, ptr %42, align 8
  %44 = zext i16 %43 to i32
  %45 = or i32 %44, 32
  %46 = trunc i32 %45 to i16
  store i16 %46, ptr %42, align 8
  br label %47

47:                                               ; preds = %35, %23
  br label %48

48:                                               ; preds = %47, %3
  ret void
}