; Function Attrs: inlinehint mustprogress nofree norecurse nosync nounwind willreturn memory(readwrite, inaccessiblemem: none) uwtable
define internal fastcc void @Abc_FlowRetime_SetInitValue(ptr noundef readonly captures(none) %0, i32 noundef %1, i32 noundef %2) unnamed_addr #10 {
  %4 = load ptr, ptr @pManMR, align 8, !tbaa !3
  %5 = getelementptr inbounds nuw i8, ptr %4, i64 112
  %6 = load ptr, ptr %5, align 8, !tbaa !47
  %7 = getelementptr i8, ptr %0, i64 16
  %.val6 = load i32, ptr %7, align 8, !tbaa !48
  %8 = zext i32 %.val6 to i64
  %9 = getelementptr inbounds nuw %struct.Flow_Data_t_, ptr %6, i64 %8
  %10 = load i16, ptr %9, align 8
  %11 = and i16 %10, -97
  store i16 %11, ptr %9, align 8
  %.not = icmp eq i32 %2, 0
  br i1 %.not, label %.sink.split, label %19

.sink.split:                                      ; preds = %3
  %.not4 = icmp eq i32 %1, 0
  %12 = load ptr, ptr @pManMR, align 8, !tbaa !3
  %13 = getelementptr inbounds nuw i8, ptr %12, i64 112
  %14 = load ptr, ptr %13, align 8, !tbaa !47
  %.val = load i32, ptr %7, align 8, !tbaa !48
  %15 = zext i32 %.val to i64
  %16 = getelementptr inbounds nuw %struct.Flow_Data_t_, ptr %14, i64 %15
  %17 = load i16, ptr %16, align 8
  %. = select i1 %.not4, i16 32, i16 64
  %18 = or i16 %17, %.
  store i16 %18, ptr %16, align 8
  br label %19

19:                                               ; preds = %.sink.split, %3
  ret void
}